; Function Attrs: mustprogress uwtable
define noundef i32 @_ZNK11BigUnsigned13toUnsignedIntEv(ptr noundef nonnull readonly align 8 captures(none) dereferenceable(16) %0) local_unnamed_addr #0 align 2 {
  %2 = getelementptr inbounds nuw i8, ptr %0, i64 4
  %3 = load i32, ptr %2, align 4, !tbaa !14
  switch i32 %3, label %10 [
    i32 0, label %_ZNK11BigUnsigned18convertToPrimitiveIjEET_v.exit
    i32 1, label %4
  ]

4:                                                ; preds = %1
  %5 = getelementptr inbounds nuw i8, ptr %0, i64 8
  %6 = load ptr, ptr %5, align 8, !tbaa !13
  %7 = load i64, ptr %6, align 8, !tbaa !15
  %8 = trunc i64 %7 to i32
  %9 = icmp ugt i64 %7, 4294967295
  br i1 %9, label %10, label %_ZNK11BigUnsigned18convertToPrimitiveIjEET_v.exit

10:                                               ; preds = %4, %1
  %11 = tail call ptr @__cxa_allocate_exception(i64 8) #9
  store ptr @.str.6, ptr %11, align 16, !tbaa !17
  tail call void @__cxa_throw(ptr nonnull %11, ptr nonnull @_ZTIPKc, ptr null) #10
  unreachable

_ZNK11BigUnsigned18convertToPrimitiveIjEET_v.exit: ; preds = %1, %4
  %.04.i = phi i32 [ %8, %4 ], [ %3, %1 ]
  ret i32 %.04.i
}